; Function Attrs: null_pointer_is_valid sspstrong uwtable
define internal i32 @dissect_h264_name(ptr noundef %0, ptr noundef readonly captures(none) %1, ptr noundef %2, ptr noundef %3) #0 {
  %5 = icmp eq ptr %3, null
  br i1 %5, label %28, label %6

6:                                                ; preds = %4
  %7 = tail call ptr @get_asn1_ctx(ptr noundef nonnull %3)
  %.not = icmp eq ptr %7, null
  br i1 %.not, label %8, label %9

8:                                                ; preds = %6
  tail call void (ptr, ...) @proto_report_dissector_bug(ptr noundef nonnull @.str.626, ptr noundef nonnull @.str.412, i32 noundef 2849, ptr noundef nonnull @.str.627) #8
  unreachable

9:                                                ; preds = %6
  %.not17 = icmp eq ptr %2, null
  br i1 %.not17, label %26, label %.lr.ph.i.preheader

.lr.ph.i.preheader:                               ; preds = %9
  %10 = getelementptr inbounds nuw i8, ptr %1, i64 296
  %11 = load ptr, ptr %10, align 8
  br label %.lr.ph.i

.lr.ph.i:                                         ; preds = %.lr.ph.i.preheader, %14
  %12 = phi ptr [ %16, %14 ], [ @.str.631, %.lr.ph.i.preheader ]
  %.010.i = phi ptr [ %15, %14 ], [ @h264_capability_tab, %.lr.ph.i.preheader ]
  %13 = tail call i32 @strcmp(ptr noundef readonly %11, ptr noundef nonnull dereferenceable(1) %12) #9
  %.not8.i = icmp eq i32 %13, 0
  br i1 %.not8.i, label %find_cap.exit, label %14

14:                                               ; preds = %.lr.ph.i
  %15 = getelementptr i8, ptr %.010.i, i64 24
  %16 = load ptr, ptr %15, align 8
  %.not.i = icmp eq ptr %16, null
  br i1 %.not.i, label %find_cap.exit.thread, label %.lr.ph.i, !llvm.loop !23

find_cap.exit:                                    ; preds = %.lr.ph.i
  %.not18 = icmp eq ptr %.010.i, null
  br i1 %.not18, label %find_cap.exit.thread, label %17

17:                                               ; preds = %find_cap.exit
  %18 = getelementptr inbounds nuw i8, ptr %7, i64 24
  %19 = load ptr, ptr %18, align 8
  %20 = getelementptr inbounds nuw i8, ptr %.010.i, i64 8
  %21 = load ptr, ptr %20, align 8
  tail call void (ptr, ptr, ...) @proto_item_append_text(ptr noundef %19, ptr noundef nonnull @.str.628, ptr noundef %21)
  %22 = tail call ptr @proto_tree_get_parent(ptr noundef nonnull %2)
  %23 = tail call ptr @proto_item_get_parent(ptr noundef %22)
  tail call void (ptr, ptr, ...) @proto_item_append_text(ptr noundef %23, ptr noundef nonnull @.str.629, ptr noundef %21)
  br label %26

find_cap.exit.thread:                             ; preds = %14, %find_cap.exit
  %24 = getelementptr inbounds nuw i8, ptr %7, i64 24
  %25 = load ptr, ptr %24, align 8
  tail call void (ptr, ptr, ...) @proto_item_append_text(ptr noundef %25, ptr noundef nonnull @.str.630, ptr noundef %11)
  br label %26

26:                                               ; preds = %17, %find_cap.exit.thread, %9
  %27 = tail call i32 @tvb_reported_length(ptr noundef %0)
  br label %28

28:                                               ; preds = %4, %26
  %.0 = phi i32 [ %27, %26 ], [ 0, %4 ]
  ret i32 %.0
}